Certificate:
    Data:
        Version: 3 (0x2)
        Serial Number: 1 (0x1)
    Signature Algorithm: sha256WithRSAEncryption
        Issuer: C=CN, ST=BJ, L=BJ, O=Gotwhen.com, OU=Gotwhen.com, CN=davidyangss/emailAddress=cn.yangss@gmail.com
        Validity
            Not Before: Nov 19 06:32:27 2016 GMT
            Not After : Nov 14 06:32:27 2039 GMT
        Subject: C=CN, ST=BJ, O=Gotwhen.com, OU=Gotwhen.com, CN=davidyangss/emailAddress=cn.yangss@gmail.com
        Subject Public Key Info:
            Public Key Algorithm: rsaEncryption
                Public-Key: (1024 bit)
                Modulus:
                    00:d6:a1:e1:fc:0c:64:2e:b7:72:b7:ba:92:4d:ef:
                    8a:3f:24:dd:dc:41:39:44:0b:00:94:6d:b2:1a:43:
                    a1:45:3a:6c:65:70:19:84:9c:b4:26:0d:d1:f6:8a:
                    ac:1c:e6:7e:1a:68:12:6f:66:3c:8b:af:10:04:0e:
                    9e:c2:76:0a:1c:f8:76:97:fa:2b:c1:66:6e:5f:a4:
                    ce:e9:e6:0d:1a:e9:fe:22:68:5d:98:ed:94:3b:fb:
                    03:c5:5b:e9:a7:a3:7f:d7:29:16:80:f4:f6:9e:26:
                    8b:e8:8e:6e:42:7a:4f:a6:3d:95:b6:3a:6f:39:80:
                    5e:c1:85:98:fa:31:09:43:a3
                Exponent: 65537 (0x10001)
        X509v3 extensions:
            X509v3 Basic Constraints: 
                CA:FALSE
            Netscape Comment: 
                OpenSSL Generated Certificate
            X509v3 Subject Key Identifier: 
                B1:B9:B5:5F:99:58:06:2D:0C:E1:3E:53:17:A1:1D:5F:B1:7C:D3:6B
            X509v3 Authority Key Identifier: 
                keyid:74:F0:B1:5A:B1:9A:3F:F3:8C:0C:0E:F1:A3:92:C0:67:CE:9D:A1:48

    Signature Algorithm: sha256WithRSAEncryption
         0f:3b:4c:00:8b:54:f9:d2:79:0f:f4:7d:18:89:21:e8:b3:f8:
         73:ff:1e:5f:5a:7a:e9:c1:39:10:89:d0:e4:46:64:91:ac:96:
         fe:ed:61:8f:2a:c0:c8:d6:b7:bd:5c:42:68:d6:b2:24:b5:9b:
         bb:9e:76:42:17:2e:c6:f6:98:50:f2:6c:8d:ba:f0:1a:bb:b4:
         62:2e:17:ba:5a:e5:af:1f:b4:30:84:b8:41:2a:e4:d6:15:a1:
         57:67:28:81:db:a8:53:dd:a7:9c:b0:ed:c0:53:de:61:de:bb:
         5b:b7:26:a8:2b:1c:29:fc:76:fc:87:51:0b:8d:6b:e5:a8:de:
         8a:12:94:9c:ba:6d:63:19:0e:78:51:b3:a2:6c:e1:13:3e:60:
         09:bc:0b:e5:12:1b:9c:e9:c0:58:bb:35:0e:3a:4e:c2:ad:a0:
         a0:ec:ad:7a:b5:e9:1f:f2:e9:8c:cc:20:b0:aa:e2:9e:74:07:
         0f:fa:7b:06:5e:e2:00:43:20:e9:b1:fa:6d:ac:8c:30:8e:1f:
         80:d4:8b:41:b8:e9:9b:03:4a:03:44:cc:fd:b5:b3:dc:cc:23:
         31:62:6b:28:ce:a6:eb:5d:18:ca:43:64:d1:87:06:11:a2:3c:
         7c:5b:0c:0e:71:37:52:89:5c:7c:f6:77:d0:91:fb:d6:1d:ae:
         68:76:2b:43
-----BEGIN CERTIFICATE-----
MIIDgTCCAmmgAwIBAgIBATANBgkqhkiG9w0BAQsFADCBjTELMAkGA1UEBhMCQ04x
CzAJBgNVBAgMAkJKMQswCQYDVQQHDAJCSjEUMBIGA1UECgwLR290d2hlbi5jb20x
FDASBgNVBAsMC0dvdHdoZW4uY29tMRQwEgYDVQQDDAtkYXZpZHlhbmdzczEiMCAG
CSqGSIb3DQEJARYTY24ueWFuZ3NzQGdtYWlsLmNvbTAeFw0xNjExMTkwNjMyMjda
Fw0zOTExMTQwNjMyMjdaMIGAMQswCQYDVQQGEwJDTjELMAkGA1UECAwCQkoxFDAS
BgNVBAoMC0dvdHdoZW4uY29tMRQwEgYDVQQLDAtHb3R3aGVuLmNvbTEUMBIGA1UE
AwwLZGF2aWR5YW5nc3MxIjAgBgkqhkiG9w0BCQEWE2NuLnlhbmdzc0BnbWFpbC5j
b20wgZ8wDQYJKoZIhvcNAQEBBQADgY0AMIGJAoGBANah4fwMZC63cre6kk3vij8k
3dxBOUQLAJRtshpDoUU6bGVwGYSctCYN0faKrBzmfhpoEm9mPIuvEAQOnsJ2Chz4
dpf6K8Fmbl+kzunmDRrp/iJoXZjtlDv7A8Vb6aejf9cpFoD09p4mi+iObkJ6T6Y9
lbY6bzmAXsGFmPoxCUOjAgMBAAGjezB5MAkGA1UdEwQCMAAwLAYJYIZIAYb4QgEN
BB8WHU9wZW5TU0wgR2VuZXJhdGVkIENlcnRpZmljYXRlMB0GA1UdDgQWBBSxubVf
mVgGLQzhPlMXoR1fsXzTazAfBgNVHSMEGDAWgBR08LFasZo/84wMDvGjksBnzp2h
SDANBgkqhkiG9w0BAQsFAAOCAQEADztMAItU+dJ5D/R9GIkh6LP4c/8eX1p66cE5
EInQ5EZkkayW/u1hjyrAyNa3vVxCaNayJLWbu552QhcuxvaYUPJsjbrwGru0Yi4X
ulrlrx+0MIS4QSrk1hWhV2cogduoU92nnLDtwFPeYd67W7cmqCscKfx2/IdRC41r
5ajeihKUnLptYxkOeFGzomzhEz5gCbwL5RIbnOnAWLs1DjpOwq2goOyterXpH/Lp
jMwgsKrinnQHD/p7Bl7iAEMg6bH6bayMMI4fgNSLQbjpmwNKA0TM/bWz3MwjMWJr
KM6m610YykNk0YcGEaI8fFsMDnE3UolcfPZ30JH71h2uaHYrQw==
-----END CERTIFICATE-----
